target datalayout = "e-m:e-p270:32:32-p271:32:32-p272:64:64-i64:64-i128:128-f80:128-n8:16:32:64-S128"
target triple = "x86_64-pc-linux-gnu"

%struct.lean_object = type { i32, i32 }

; Function Attrs: inlinehint nounwind uwtable
define internal zeroext i1 @lean_is_st(ptr noundef %0) #0 {
  %2 = alloca ptr, align 8
  store ptr %0, ptr %2, align 8, !tbaa !8
  %3 = load ptr, ptr %2, align 8, !tbaa !8
  %4 = getelementptr inbounds nuw %struct.lean_object, ptr %3, i32 0, i32 0
  %5 = load i32, ptr %4, align 4, !tbaa !15
  %6 = icmp sgt i32 %5, 0
  ret i1 %6
}

; Function Attrs: inlinehint nounwind uwtable
define internal ptr @lean_box(i64 noundef %0) #0 {
  %2 = alloca i64, align 8
  store i64 %0, ptr %2, align 8, !tbaa !4
  %3 = load i64, ptr %2, align 8, !tbaa !4
  %4 = shl i64 %3, 1
  %5 = or i64 %4, 1
  %6 = inttoptr i64 %5 to ptr
  ret ptr %6
}

; Function Attrs: alwaysinline nounwind uwtable
define internal void @lean_dec_ref(ptr noundef %0) #1 {
  %2 = alloca ptr, align 8
  store ptr %0, ptr %2, align 8, !tbaa !8
  %3 = load ptr, ptr %2, align 8, !tbaa !8
  %4 = getelementptr inbounds nuw %struct.lean_object, ptr %3, i32 0, i32 0
  %5 = load i32, ptr %4, align 4, !tbaa !15
  %6 = icmp sgt i32 %5, 1
  %7 = zext i1 %6 to i32
  %8 = sext i32 %7 to i64
  %9 = call i64 @llvm.expect.i64(i64 %8, i64 1)
  %10 = icmp ne i64 %9, 0
  br i1 %10, label %11, label %16

11:                                               ; preds = %1
  %12 = load ptr, ptr %2, align 8, !tbaa !8
  %13 = getelementptr inbounds nuw %struct.lean_object, ptr %12, i32 0, i32 0
  %14 = load i32, ptr %13, align 4, !tbaa !15
  %15 = add i32 %14, -1
  store i32 %15, ptr %13, align 4, !tbaa !15
  br label %24

16:                                               ; preds = %1
  %17 = load ptr, ptr %2, align 8, !tbaa !8
  %18 = getelementptr inbounds nuw %struct.lean_object, ptr %17, i32 0, i32 0
  %19 = load i32, ptr %18, align 4, !tbaa !15
  %20 = icmp ne i32 %19, 0
  br i1 %20, label %21, label %23

21:                                               ; preds = %16
  %22 = load ptr, ptr %2, align 8, !tbaa !8
  call void @lean_dec_ref_cold(ptr noundef %22)
  br label %23

23:                                               ; preds = %21, %16
  br label %24

24:                                               ; preds = %23, %11
  ret void
}

; Function Attrs: inlinehint nounwind uwtable
define internal void @lean_inc_ref(ptr noundef %0) #0 {
  %2 = alloca ptr, align 8
  store ptr %0, ptr %2, align 8, !tbaa !8
  %3 = load ptr, ptr %2, align 8, !tbaa !8
  %4 = call zeroext i1 @lean_is_st(ptr noundef %3)
  %5 = zext i1 %4 to i64
  %6 = call i64 @llvm.expect.i64(i64 %5, i64 1)
  %7 = icmp ne i64 %6, 0
  br i1 %7, label %8, label %13

8:                                                ; preds = %1
  %9 = load ptr, ptr %2, align 8, !tbaa !8
  %10 = getelementptr inbounds nuw %struct.lean_object, ptr %9, i32 0, i32 0
  %11 = load i32, ptr %10, align 4, !tbaa !15
  %12 = add i32 %11, 1
  store i32 %12, ptr %10, align 4, !tbaa !15
  br label %21

13:                                               ; preds = %1
  %14 = load ptr, ptr %2, align 8, !tbaa !8
  %15 = getelementptr inbounds nuw %struct.lean_object, ptr %14, i32 0, i32 0
  %16 = load i32, ptr %15, align 4, !tbaa !15
  %17 = icmp ne i32 %16, 0
  br i1 %17, label %18, label %20

18:                                               ; preds = %13
  %19 = load ptr, ptr %2, align 8, !tbaa !8
  call void @lean_inc_ref_cold(ptr noundef %19)
  br label %20

20:                                               ; preds = %18, %13
  br label %21

21:                                               ; preds = %20, %8
  ret void
}

; Function Attrs: alwaysinline nounwind uwtable
define internal zeroext i1 @lean_is_scalar(ptr noundef %0) #1 {
  %2 = alloca ptr, align 8
  store ptr %0, ptr %2, align 8, !tbaa !8
  %3 = load ptr, ptr %2, align 8, !tbaa !8
  %4 = ptrtoint ptr %3 to i64
  %5 = and i64 %4, 1
  %6 = icmp eq i64 %5, 1
  ret i1 %6
}

; Function Attrs: inlinehint nounwind uwtable
define internal ptr @lean_usize_to_nat(i64 noundef %0) #0 {
  %2 = alloca ptr, align 8
  %3 = alloca i64, align 8
  store i64 %0, ptr %3, align 8, !tbaa !4
  %4 = load i64, ptr %3, align 8, !tbaa !4
  %5 = icmp ule i64 %4, 9223372036854775807
  %6 = zext i1 %5 to i32
  %7 = sext i32 %6 to i64
  %8 = call i64 @llvm.expect.i64(i64 %7, i64 1)
  %9 = icmp ne i64 %8, 0
  br i1 %9, label %10, label %13

10:                                               ; preds = %1
  %11 = load i64, ptr %3, align 8, !tbaa !4
  %12 = call ptr @lean_box(i64 noundef %11)
  store ptr %12, ptr %2, align 8
  br label %16

13:                                               ; preds = %1
  %14 = load i64, ptr %3, align 8, !tbaa !4
  %15 = call ptr @lean_big_usize_to_nat(i64 noundef %14)
  store ptr %15, ptr %2, align 8
  br label %16

16:                                               ; preds = %13, %10
  %17 = load ptr, ptr %2, align 8
  ret ptr %17
}

; Function Attrs: alwaysinline nounwind uwtable
define internal void @lean_dec(ptr noundef %0) #1 {
  %2 = alloca ptr, align 8
  store ptr %0, ptr %2, align 8, !tbaa !8
  %3 = load ptr, ptr %2, align 8, !tbaa !8
  %4 = call zeroext i1 @lean_is_scalar(ptr noundef %3)
  br i1 %4, label %7, label %5

5:                                                ; preds = %1
  %6 = load ptr, ptr %2, align 8, !tbaa !8
  call void @lean_dec_ref(ptr noundef %6)
  br label %7

7:                                                ; preds = %5, %1
  ret void
}

; Function Attrs: alwaysinline nounwind uwtable
define internal void @lean_inc(ptr noundef %0) #1 {
  %2 = alloca ptr, align 8
  store ptr %0, ptr %2, align 8, !tbaa !8
  %3 = load ptr, ptr %2, align 8, !tbaa !8
  %4 = call zeroext i1 @lean_is_scalar(ptr noundef %3)
  br i1 %4, label %7, label %5

5:                                                ; preds = %1
  %6 = load ptr, ptr %2, align 8, !tbaa !8
  call void @lean_inc_ref(ptr noundef %6)
  br label %7

7:                                                ; preds = %5, %1
  ret void
}

; Function Attrs: inlinehint nounwind uwtable
define internal ptr @lean_unsigned_to_nat(i32 noundef %0) #0 {
  %2 = alloca i32, align 4
  store i32 %0, ptr %2, align 4, !tbaa !13
  %3 = load i32, ptr %2, align 4, !tbaa !13
  %4 = zext i32 %3 to i64
  %5 = call ptr @lean_usize_to_nat(i64 noundef %4)
  ret ptr %5
}

; Function Attrs: nounwind uwtable
define ptr @l_Lean_Elab_elabTerminationHints___at___private_Lean_Elab_LetRec_0__Lean_Elab_Term_mkLetRecDeclView___spec__4___lambda__14(ptr noundef %0, ptr noundef %1, ptr noundef %2, ptr noundef %3, ptr noundef %4, ptr noundef %5, ptr noundef %6, ptr noundef %7, ptr noundef %8, ptr noundef %9, ptr noundef %10, ptr noundef %11, ptr noundef %12, ptr noundef %13) #2 {
  %15 = alloca ptr, align 8
  %16 = alloca ptr, align 8
  %17 = alloca ptr, align 8
  %18 = alloca ptr, align 8
  %19 = alloca ptr, align 8
  %20 = alloca ptr, align 8
  %21 = alloca ptr, align 8
  %22 = alloca ptr, align 8
  %23 = alloca ptr, align 8
  %24 = alloca ptr, align 8
  %25 = alloca ptr, align 8
  %26 = alloca ptr, align 8
  %27 = alloca ptr, align 8
  %28 = alloca ptr, align 8
  %29 = alloca ptr, align 8
  %30 = alloca ptr, align 8
  %31 = alloca i8, align 1
  %32 = alloca ptr, align 8
  %33 = alloca i32, align 4
  %34 = alloca ptr, align 8
  %35 = alloca ptr, align 8
  %36 = alloca i8, align 1
  %37 = alloca ptr, align 8
  %38 = alloca ptr, align 8
  %39 = alloca ptr, align 8
  store ptr %0, ptr %16, align 8, !tbaa !8
  store ptr %1, ptr %17, align 8, !tbaa !8
  store ptr %2, ptr %18, align 8, !tbaa !8
  store ptr %3, ptr %19, align 8, !tbaa !8
  store ptr %4, ptr %20, align 8, !tbaa !8
  store ptr %5, ptr %21, align 8, !tbaa !8
  store ptr %6, ptr %22, align 8, !tbaa !8
  store ptr %7, ptr %23, align 8, !tbaa !8
  store ptr %8, ptr %24, align 8, !tbaa !8
  store ptr %9, ptr %25, align 8, !tbaa !8
  store ptr %10, ptr %26, align 8, !tbaa !8
  store ptr %11, ptr %27, align 8, !tbaa !8
  store ptr %12, ptr %28, align 8, !tbaa !8
  store ptr %13, ptr %29, align 8, !tbaa !8
  br label %40

40:                                               ; preds = %14
  call void @llvm.lifetime.start.p0(i64 8, ptr %30) #7
  call void @llvm.lifetime.start.p0(i64 1, ptr %31) #7
  %41 = call ptr @lean_unsigned_to_nat(i32 noundef 2)
  store ptr %41, ptr %30, align 8, !tbaa !8
  %42 = load ptr, ptr %16, align 8, !tbaa !8
  call void @lean_inc(ptr noundef %42)
  %43 = load ptr, ptr %16, align 8, !tbaa !8
  %44 = load ptr, ptr %30, align 8, !tbaa !8
  %45 = call zeroext i8 @l_Lean_Syntax_matchesNull(ptr noundef %43, ptr noundef %44)
  store i8 %45, ptr %31, align 1, !tbaa !12
  %46 = load i8, ptr %31, align 1, !tbaa !12
  %47 = zext i8 %46 to i32
  %48 = icmp eq i32 %47, 0
  br i1 %48, label %49, label %65

49:                                               ; preds = %40
  call void @llvm.lifetime.start.p0(i64 8, ptr %32) #7
  %50 = load ptr, ptr %20, align 8, !tbaa !8
  call void @lean_dec(ptr noundef %50)
  %51 = load ptr, ptr %19, align 8, !tbaa !8
  call void @lean_dec(ptr noundef %51)
  %52 = load ptr, ptr %16, align 8, !tbaa !8
  call void @lean_dec(ptr noundef %52)
  %53 = load ptr, ptr %17, align 8, !tbaa !8
  %54 = load ptr, ptr %22, align 8, !tbaa !8
  %55 = load ptr, ptr %18, align 8, !tbaa !8
  %56 = load ptr, ptr %23, align 8, !tbaa !8
  %57 = load ptr, ptr %24, align 8, !tbaa !8
  %58 = load ptr, ptr %25, align 8, !tbaa !8
  %59 = load ptr, ptr %26, align 8, !tbaa !8
  %60 = load ptr, ptr %27, align 8, !tbaa !8
  %61 = load ptr, ptr %28, align 8, !tbaa !8
  %62 = load ptr, ptr %29, align 8, !tbaa !8
  %63 = call ptr @lean_apply_9(ptr noundef %53, ptr noundef %54, ptr noundef %55, ptr noundef %56, ptr noundef %57, ptr noundef %58, ptr noundef %59, ptr noundef %60, ptr noundef %61, ptr noundef %62)
  store ptr %63, ptr %32, align 8, !tbaa !8
  %64 = load ptr, ptr %32, align 8, !tbaa !8
  store ptr %64, ptr %15, align 8
  store i32 1, ptr %33, align 4
  call void @llvm.lifetime.end.p0(i64 8, ptr %32) #7
  br label %113

65:                                               ; preds = %40
  call void @llvm.lifetime.start.p0(i64 8, ptr %34) #7
  call void @llvm.lifetime.start.p0(i64 8, ptr %35) #7
  call void @llvm.lifetime.start.p0(i64 1, ptr %36) #7
  %66 = load ptr, ptr %17, align 8, !tbaa !8
  call void @lean_dec(ptr noundef %66)
  %67 = call ptr @lean_unsigned_to_nat(i32 noundef 0)
  store ptr %67, ptr %34, align 8, !tbaa !8
  %68 = load ptr, ptr %16, align 8, !tbaa !8
  %69 = load ptr, ptr %34, align 8, !tbaa !8
  %70 = call ptr @l_Lean_Syntax_getArg(ptr noundef %68, ptr noundef %69)
  store ptr %70, ptr %35, align 8, !tbaa !8
  %71 = load ptr, ptr %16, align 8, !tbaa !8
  call void @lean_dec(ptr noundef %71)
  %72 = load ptr, ptr %35, align 8, !tbaa !8
  call void @lean_inc(ptr noundef %72)
  %73 = load ptr, ptr %35, align 8, !tbaa !8
  %74 = load ptr, ptr %34, align 8, !tbaa !8
  %75 = call zeroext i8 @l_Lean_Syntax_matchesNull(ptr noundef %73, ptr noundef %74)
  store i8 %75, ptr %36, align 1, !tbaa !12
  %76 = load i8, ptr %36, align 1, !tbaa !12
  %77 = zext i8 %76 to i32
  %78 = icmp eq i32 %77, 0
  br i1 %78, label %79, label %97

79:                                               ; preds = %65
  call void @llvm.lifetime.start.p0(i64 8, ptr %37) #7
  call void @llvm.lifetime.start.p0(i64 8, ptr %38) #7
  %80 = load ptr, ptr %20, align 8, !tbaa !8
  call void @lean_dec(ptr noundef %80)
  %81 = load ptr, ptr %35, align 8, !tbaa !8
  %82 = call ptr @l_Lean_Syntax_getArgs(ptr noundef %81)
  store ptr %82, ptr %37, align 8, !tbaa !8
  %83 = load ptr, ptr %35, align 8, !tbaa !8
  call void @lean_dec(ptr noundef %83)
  %84 = load ptr, ptr %19, align 8, !tbaa !8
  %85 = load ptr, ptr %22, align 8, !tbaa !8
  %86 = load ptr, ptr %37, align 8, !tbaa !8
  %87 = load ptr, ptr %18, align 8, !tbaa !8
  %88 = load ptr, ptr %23, align 8, !tbaa !8
  %89 = load ptr, ptr %24, align 8, !tbaa !8
  %90 = load ptr, ptr %25, align 8, !tbaa !8
  %91 = load ptr, ptr %26, align 8, !tbaa !8
  %92 = load ptr, ptr %27, align 8, !tbaa !8
  %93 = load ptr, ptr %28, align 8, !tbaa !8
  %94 = load ptr, ptr %29, align 8, !tbaa !8
  %95 = call ptr @lean_apply_10(ptr noundef %84, ptr noundef %85, ptr noundef %86, ptr noundef %87, ptr noundef %88, ptr noundef %89, ptr noundef %90, ptr noundef %91, ptr noundef %92, ptr noundef %93, ptr noundef %94)
  store ptr %95, ptr %38, align 8, !tbaa !8
  %96 = load ptr, ptr %38, align 8, !tbaa !8
  store ptr %96, ptr %15, align 8
  store i32 1, ptr %33, align 4
  call void @llvm.lifetime.end.p0(i64 8, ptr %38) #7
  call void @llvm.lifetime.end.p0(i64 8, ptr %37) #7
  br label %112

97:                                               ; preds = %65
  call void @llvm.lifetime.start.p0(i64 8, ptr %39) #7
  %98 = load ptr, ptr %35, align 8, !tbaa !8
  call void @lean_dec(ptr noundef %98)
  %99 = load ptr, ptr %19, align 8, !tbaa !8
  call void @lean_dec(ptr noundef %99)
  %100 = load ptr, ptr %20, align 8, !tbaa !8
  %101 = load ptr, ptr %22, align 8, !tbaa !8
  %102 = load ptr, ptr %18, align 8, !tbaa !8
  %103 = load ptr, ptr %23, align 8, !tbaa !8
  %104 = load ptr, ptr %24, align 8, !tbaa !8
  %105 = load ptr, ptr %25, align 8, !tbaa !8
  %106 = load ptr, ptr %26, align 8, !tbaa !8
  %107 = load ptr, ptr %27, align 8, !tbaa !8
  %108 = load ptr, ptr %28, align 8, !tbaa !8
  %109 = load ptr, ptr %29, align 8, !tbaa !8
  %110 = call ptr @lean_apply_9(ptr noundef %100, ptr noundef %101, ptr noundef %102, ptr noundef %103, ptr noundef %104, ptr noundef %105, ptr noundef %106, ptr noundef %107, ptr noundef %108, ptr noundef %109)
  store ptr %110, ptr %39, align 8, !tbaa !8
  %111 = load ptr, ptr %39, align 8, !tbaa !8
  store ptr %111, ptr %15, align 8
  store i32 1, ptr %33, align 4
  call void @llvm.lifetime.end.p0(i64 8, ptr %39) #7
  br label %112

112:                                              ; preds = %97, %79
  call void @llvm.lifetime.end.p0(i64 1, ptr %36) #7
  call void @llvm.lifetime.end.p0(i64 8, ptr %35) #7
  call void @llvm.lifetime.end.p0(i64 8, ptr %34) #7
  br label %113

113:                                              ; preds = %112, %49
  call void @llvm.lifetime.end.p0(i64 1, ptr %31) #7
  call void @llvm.lifetime.end.p0(i64 8, ptr %30) #7
  %114 = load ptr, ptr %15, align 8
  ret ptr %114
}