; Function Attrs: nounwind uwtable
define ptr @l_Lean_Elab_elabTerminationHints___at___private_Lean_Elab_LetRec_0__Lean_Elab_Term_mkLetRecDeclView___spec__4___lambda__14(ptr noundef %0, ptr noundef %1, ptr noundef %2, ptr noundef %3, ptr noundef %4, ptr readnone captures(none) %5, ptr noundef %6, ptr noundef %7, ptr noundef %8, ptr noundef %9, ptr noundef %10, ptr noundef %11, ptr noundef %12, ptr noundef %13) local_unnamed_addr #0 {
  %15 = ptrtoint ptr %0 to i64
  %16 = and i64 %15, 1
  %.not = icmp eq i64 %16, 0
  br i1 %.not, label %17, label %lean_inc.exit62

17:                                               ; preds = %14
  %.val.i = load i32, ptr %0, align 4, !tbaa !4
  %18 = icmp sgt i32 %.val.i, 0
  br i1 %18, label %19, label %21, !prof !9

19:                                               ; preds = %17
  %20 = add nuw i32 %.val.i, 1
  store i32 %20, ptr %0, align 4, !tbaa !4
  br label %lean_inc.exit62

21:                                               ; preds = %17
  %.not.i79 = icmp eq i32 %.val.i, 0
  br i1 %.not.i79, label %lean_inc.exit62, label %22

22:                                               ; preds = %21
  tail call void @lean_inc_ref_cold(ptr noundef nonnull %0) #5
  br label %lean_inc.exit62

lean_inc.exit62:                                  ; preds = %22, %21, %19, %14
  %23 = tail call zeroext i8 @l_Lean_Syntax_matchesNull(ptr noundef %0, ptr noundef nonnull inttoptr (i64 5 to ptr)) #5
  %24 = icmp eq i8 %23, 0
  br i1 %24, label %25, label %52

25:                                               ; preds = %lean_inc.exit62
  %26 = ptrtoint ptr %4 to i64
  %27 = and i64 %26, 1
  %.not87 = icmp eq i64 %27, 0
  br i1 %.not87, label %28, label %lean_dec.exit61

28:                                               ; preds = %25
  %29 = load i32, ptr %4, align 4, !tbaa !4
  %30 = icmp sgt i32 %29, 1
  br i1 %30, label %31, label %33, !prof !9

31:                                               ; preds = %28
  %32 = add nsw i32 %29, -1
  store i32 %32, ptr %4, align 4, !tbaa !4
  br label %lean_dec.exit61

33:                                               ; preds = %28
  %.not.i = icmp eq i32 %29, 0
  br i1 %.not.i, label %lean_dec.exit61, label %34

34:                                               ; preds = %33
  tail call void @lean_dec_ref_cold(ptr noundef nonnull %4) #5
  br label %lean_dec.exit61

lean_dec.exit61:                                  ; preds = %34, %33, %31, %25
  %35 = ptrtoint ptr %3 to i64
  %36 = and i64 %35, 1
  %.not88 = icmp eq i64 %36, 0
  br i1 %.not88, label %37, label %lean_dec.exit60

37:                                               ; preds = %lean_dec.exit61
  %38 = load i32, ptr %3, align 4, !tbaa !4
  %39 = icmp sgt i32 %38, 1
  br i1 %39, label %40, label %42, !prof !9

40:                                               ; preds = %37
  %41 = add nsw i32 %38, -1
  store i32 %41, ptr %3, align 4, !tbaa !4
  br label %lean_dec.exit60

42:                                               ; preds = %37
  %.not.i63 = icmp eq i32 %38, 0
  br i1 %.not.i63, label %lean_dec.exit60, label %43

43:                                               ; preds = %42
  tail call void @lean_dec_ref_cold(ptr noundef nonnull %3) #5
  br label %lean_dec.exit60

lean_dec.exit60:                                  ; preds = %43, %42, %40, %lean_dec.exit61
  br i1 %.not, label %44, label %lean_dec.exit59

44:                                               ; preds = %lean_dec.exit60
  %45 = load i32, ptr %0, align 4, !tbaa !4
  %46 = icmp sgt i32 %45, 1
  br i1 %46, label %47, label %49, !prof !9

47:                                               ; preds = %44
  %48 = add nsw i32 %45, -1
  store i32 %48, ptr %0, align 4, !tbaa !4
  br label %lean_dec.exit59

49:                                               ; preds = %44
  %.not.i65 = icmp eq i32 %45, 0
  br i1 %.not.i65, label %lean_dec.exit59, label %50

50:                                               ; preds = %49
  tail call void @lean_dec_ref_cold(ptr noundef nonnull %0) #5
  br label %lean_dec.exit59

lean_dec.exit59:                                  ; preds = %50, %49, %47, %lean_dec.exit60
  %51 = tail call ptr @lean_apply_9(ptr noundef %1, ptr noundef %6, ptr noundef %2, ptr noundef %7, ptr noundef %8, ptr noundef %9, ptr noundef %10, ptr noundef %11, ptr noundef %12, ptr noundef %13) #5
  br label %118

52:                                               ; preds = %lean_inc.exit62
  %53 = ptrtoint ptr %1 to i64
  %54 = and i64 %53, 1
  %.not83 = icmp eq i64 %54, 0
  br i1 %.not83, label %55, label %lean_dec.exit58

55:                                               ; preds = %52
  %56 = load i32, ptr %1, align 4, !tbaa !4
  %57 = icmp sgt i32 %56, 1
  br i1 %57, label %58, label %60, !prof !9

58:                                               ; preds = %55
  %59 = add nsw i32 %56, -1
  store i32 %59, ptr %1, align 4, !tbaa !4
  br label %lean_dec.exit58

60:                                               ; preds = %55
  %.not.i67 = icmp eq i32 %56, 0
  br i1 %.not.i67, label %lean_dec.exit58, label %61

61:                                               ; preds = %60
  tail call void @lean_dec_ref_cold(ptr noundef nonnull %1) #5
  br label %lean_dec.exit58

lean_dec.exit58:                                  ; preds = %61, %60, %58, %52
  %62 = tail call ptr @l_Lean_Syntax_getArg(ptr noundef %0, ptr noundef nonnull inttoptr (i64 1 to ptr)) #5
  br i1 %.not, label %63, label %lean_dec.exit57

63:                                               ; preds = %lean_dec.exit58
  %64 = load i32, ptr %0, align 4, !tbaa !4
  %65 = icmp sgt i32 %64, 1
  br i1 %65, label %66, label %68, !prof !9

66:                                               ; preds = %63
  %67 = add nsw i32 %64, -1
  store i32 %67, ptr %0, align 4, !tbaa !4
  br label %lean_dec.exit57

68:                                               ; preds = %63
  %.not.i69 = icmp eq i32 %64, 0
  br i1 %.not.i69, label %lean_dec.exit57, label %69

69:                                               ; preds = %68
  tail call void @lean_dec_ref_cold(ptr noundef nonnull %0) #5
  br label %lean_dec.exit57

lean_dec.exit57:                                  ; preds = %69, %68, %66, %lean_dec.exit58
  %70 = ptrtoint ptr %62 to i64
  %71 = and i64 %70, 1
  %.not84 = icmp eq i64 %71, 0
  br i1 %.not84, label %72, label %lean_inc.exit.thread

72:                                               ; preds = %lean_dec.exit57
  %.val.i80 = load i32, ptr %62, align 4, !tbaa !4
  %73 = icmp sgt i32 %.val.i80, 0
  br i1 %73, label %74, label %76, !prof !9

74:                                               ; preds = %72
  %75 = add nuw i32 %.val.i80, 1
  store i32 %75, ptr %62, align 4, !tbaa !4
  br label %lean_inc.exit

76:                                               ; preds = %72
  %.not.i81 = icmp eq i32 %.val.i80, 0
  br i1 %.not.i81, label %lean_inc.exit, label %77

77:                                               ; preds = %76
  tail call void @lean_inc_ref_cold(ptr noundef nonnull %62) #5
  br label %lean_inc.exit

lean_inc.exit:                                    ; preds = %77, %76, %74
  %78 = tail call zeroext i8 @l_Lean_Syntax_matchesNull(ptr noundef nonnull %62, ptr noundef nonnull inttoptr (i64 1 to ptr)) #5
  %79 = icmp eq i8 %78, 0
  br i1 %79, label %82, label %101

lean_inc.exit.thread:                             ; preds = %lean_dec.exit57
  %80 = tail call zeroext i8 @l_Lean_Syntax_matchesNull(ptr noundef %62, ptr noundef nonnull inttoptr (i64 1 to ptr)) #5
  %81 = icmp eq i8 %80, 0
  br i1 %81, label %82, label %lean_dec.exit54

82:                                               ; preds = %lean_inc.exit.thread, %lean_inc.exit
  %83 = ptrtoint ptr %4 to i64
  %84 = and i64 %83, 1
  %.not86 = icmp eq i64 %84, 0
  br i1 %.not86, label %85, label %lean_dec.exit56

85:                                               ; preds = %82
  %86 = load i32, ptr %4, align 4, !tbaa !4
  %87 = icmp sgt i32 %86, 1
  br i1 %87, label %88, label %90, !prof !9

88:                                               ; preds = %85
  %89 = add nsw i32 %86, -1
  store i32 %89, ptr %4, align 4, !tbaa !4
  br label %lean_dec.exit56

90:                                               ; preds = %85
  %.not.i71 = icmp eq i32 %86, 0
  br i1 %.not.i71, label %lean_dec.exit56, label %91

91:                                               ; preds = %90
  tail call void @lean_dec_ref_cold(ptr noundef nonnull %4) #5
  br label %lean_dec.exit56

lean_dec.exit56:                                  ; preds = %91, %90, %88, %82
  %92 = tail call ptr @l_Lean_Syntax_getArgs(ptr noundef %62) #5
  br i1 %.not84, label %93, label %lean_dec.exit55

93:                                               ; preds = %lean_dec.exit56
  %94 = load i32, ptr %62, align 4, !tbaa !4
  %95 = icmp sgt i32 %94, 1
  br i1 %95, label %96, label %98, !prof !9

96:                                               ; preds = %93
  %97 = add nsw i32 %94, -1
  store i32 %97, ptr %62, align 4, !tbaa !4
  br label %lean_dec.exit55

98:                                               ; preds = %93
  %.not.i73 = icmp eq i32 %94, 0
  br i1 %.not.i73, label %lean_dec.exit55, label %99

99:                                               ; preds = %98
  tail call void @lean_dec_ref_cold(ptr noundef nonnull %62) #5
  br label %lean_dec.exit55

lean_dec.exit55:                                  ; preds = %99, %98, %96, %lean_dec.exit56
  %100 = tail call ptr @lean_apply_10(ptr noundef %3, ptr noundef %6, ptr noundef %92, ptr noundef %2, ptr noundef %7, ptr noundef %8, ptr noundef %9, ptr noundef %10, ptr noundef %11, ptr noundef %12, ptr noundef %13) #5
  br label %118

101:                                              ; preds = %lean_inc.exit
  %102 = load i32, ptr %62, align 4, !tbaa !4
  %103 = icmp sgt i32 %102, 1
  br i1 %103, label %104, label %106, !prof !9

104:                                              ; preds = %101
  %105 = add nsw i32 %102, -1
  store i32 %105, ptr %62, align 4, !tbaa !4
  br label %lean_dec.exit54

106:                                              ; preds = %101
  %.not.i75 = icmp eq i32 %102, 0
  br i1 %.not.i75, label %lean_dec.exit54, label %107

107:                                              ; preds = %106
  tail call void @lean_dec_ref_cold(ptr noundef nonnull %62) #5
  br label %lean_dec.exit54

lean_dec.exit54:                                  ; preds = %lean_inc.exit.thread, %107, %106, %104
  %108 = ptrtoint ptr %3 to i64
  %109 = and i64 %108, 1
  %.not85 = icmp eq i64 %109, 0
  br i1 %.not85, label %110, label %lean_dec.exit

110:                                              ; preds = %lean_dec.exit54
  %111 = load i32, ptr %3, align 4, !tbaa !4
  %112 = icmp sgt i32 %111, 1
  br i1 %112, label %113, label %115, !prof !9

113:                                              ; preds = %110
  %114 = add nsw i32 %111, -1
  store i32 %114, ptr %3, align 4, !tbaa !4
  br label %lean_dec.exit

115:                                              ; preds = %110
  %.not.i77 = icmp eq i32 %111, 0
  br i1 %.not.i77, label %lean_dec.exit, label %116

116:                                              ; preds = %115
  tail call void @lean_dec_ref_cold(ptr noundef nonnull %3) #5
  br label %lean_dec.exit

lean_dec.exit:                                    ; preds = %116, %115, %113, %lean_dec.exit54
  %117 = tail call ptr @lean_apply_9(ptr noundef %4, ptr noundef %6, ptr noundef %2, ptr noundef %7, ptr noundef %8, ptr noundef %9, ptr noundef %10, ptr noundef %11, ptr noundef %12, ptr noundef %13) #5
  br label %118

118:                                              ; preds = %lean_dec.exit55, %lean_dec.exit, %lean_dec.exit59
  %.0 = phi ptr [ %51, %lean_dec.exit59 ], [ %100, %lean_dec.exit55 ], [ %117, %lean_dec.exit ]
  ret ptr %.0
}